target datalayout = "e-m:e-p270:32:32-p271:32:32-p272:64:64-i64:64-i128:128-f80:128-n8:16:32:64-S128"
target triple = "x86_64-pc-linux-gnu"

%struct._object = type { %union.anon, ptr }
%union.anon = type { i64 }
%struct._typeobject = type { %struct.PyVarObject, ptr, i64, i64, ptr, i64, ptr, ptr, ptr, ptr, ptr, ptr, ptr, ptr, ptr, ptr, ptr, ptr, ptr, i64, ptr, ptr, ptr, ptr, i64, ptr, ptr, ptr, ptr, ptr, ptr, ptr, ptr, ptr, i64, ptr, ptr, ptr, ptr, ptr, ptr, ptr, ptr, ptr, ptr, ptr, i32, ptr, ptr, i8, i16 }
%struct.PyVarObject = type { %struct._object, i64 }
%struct.pysqlite_Connection = type { %struct._object, ptr, ptr, i32, ptr, i32, i32, i32, i64, ptr, ptr, ptr, i32, ptr, ptr, ptr, ptr, ptr, ptr, ptr, ptr, ptr, ptr, ptr, ptr, ptr, ptr, ptr }
%struct.anon = type { i32, i32 }

@_Py_NoneStruct = external global %struct._object, align 8
@PyExc_ValueError = external global ptr, align 8
@PyExc_TypeError = external global ptr, align 8
@PyExc_AttributeError = external global ptr, align 8
@.str.125 = private unnamed_addr constant [24 x i8] c"cannot delete attribute\00", align 1
@.str.126 = private unnamed_addr constant [36 x i8] c"isolation_level must be str or None\00", align 1
@get_isolation_level.allowed_levels = internal constant [5 x ptr] [ptr @.str.66, ptr @.str.127, ptr @.str.128, ptr @.str.129, ptr null], align 16
@.str.130 = private unnamed_addr constant [75 x i8] c"isolation_level string must be '', 'DEFERRED', 'IMMEDIATE', or 'EXCLUSIVE'\00", align 1

; Function Attrs: nounwind uwtable
define internal ptr @get_isolation_level(ptr noundef %0) #0 {
  %2 = alloca ptr, align 8
  %3 = alloca ptr, align 8
  %4 = alloca i32, align 4
  %5 = alloca i32, align 4
  %6 = alloca ptr, align 8
  store ptr %0, ptr %3, align 8, !tbaa !42
  call void @llvm.lifetime.start.p0(i64 4, ptr %4) #8
  store i32 0, ptr %4, align 4, !tbaa !30
  br label %7

7:                                                ; preds = %29, %1
  %8 = load i32, ptr %4, align 4, !tbaa !30
  %9 = sext i32 %8 to i64
  %10 = getelementptr [5 x ptr], ptr @get_isolation_level.allowed_levels, i64 0, i64 %9
  %11 = load ptr, ptr %10, align 8, !tbaa !42
  %12 = icmp ne ptr %11, null
  br i1 %12, label %14, label %13

13:                                               ; preds = %7
  store i32 2, ptr %5, align 4
  br label %32

14:                                               ; preds = %7
  call void @llvm.lifetime.start.p0(i64 8, ptr %6) #8
  %15 = load i32, ptr %4, align 4, !tbaa !30
  %16 = sext i32 %15 to i64
  %17 = getelementptr [5 x ptr], ptr @get_isolation_level.allowed_levels, i64 0, i64 %16
  %18 = load ptr, ptr %17, align 8, !tbaa !42
  store ptr %18, ptr %6, align 8, !tbaa !42
  %19 = load ptr, ptr %3, align 8, !tbaa !42
  %20 = load ptr, ptr %6, align 8, !tbaa !42
  %21 = call i32 @sqlite3_stricmp(ptr noundef %19, ptr noundef %20)
  %22 = icmp eq i32 %21, 0
  br i1 %22, label %23, label %25

23:                                               ; preds = %14
  %24 = load ptr, ptr %6, align 8, !tbaa !42
  store ptr %24, ptr %2, align 8
  store i32 1, ptr %5, align 4
  br label %26

25:                                               ; preds = %14
  store i32 0, ptr %5, align 4
  br label %26

26:                                               ; preds = %25, %23
  call void @llvm.lifetime.end.p0(i64 8, ptr %6) #8
  %27 = load i32, ptr %5, align 4
  switch i32 %27, label %32 [
    i32 0, label %28
  ]

28:                                               ; preds = %26
  br label %29

29:                                               ; preds = %28
  %30 = load i32, ptr %4, align 4, !tbaa !30
  %31 = add i32 %30, 1
  store i32 %31, ptr %4, align 4, !tbaa !30
  br label %7, !llvm.loop !117

32:                                               ; preds = %26, %13
  call void @llvm.lifetime.end.p0(i64 4, ptr %4) #8
  %33 = load i32, ptr %5, align 4
  switch i32 %33, label %38 [
    i32 2, label %34
    i32 1, label %36
  ]

34:                                               ; preds = %32
  %35 = load ptr, ptr @PyExc_ValueError, align 8, !tbaa !22
  call void @PyErr_SetString(ptr noundef %35, ptr noundef @.str.130)
  store ptr null, ptr %2, align 8
  br label %36

36:                                               ; preds = %34, %32
  %37 = load ptr, ptr %2, align 8
  ret ptr %37

38:                                               ; preds = %32
  unreachable
}

; Function Attrs: inlinehint nounwind uwtable
define internal i32 @PyType_HasFeature(ptr noundef %0, i64 noundef %1) #2 {
  %3 = alloca ptr, align 8
  %4 = alloca i64, align 8
  %5 = alloca i64, align 8
  store ptr %0, ptr %3, align 8, !tbaa !21
  store i64 %1, ptr %4, align 8, !tbaa !39
  call void @llvm.lifetime.start.p0(i64 8, ptr %5) #8
  %6 = load ptr, ptr %3, align 8, !tbaa !21
  %7 = getelementptr inbounds nuw %struct._typeobject, ptr %6, i32 0, i32 19
  %8 = load i64, ptr %7, align 8, !tbaa !73
  store i64 %8, ptr %5, align 8, !tbaa !39
  %9 = load i64, ptr %5, align 8, !tbaa !39
  %10 = load i64, ptr %4, align 8, !tbaa !39
  %11 = and i64 %9, %10
  %12 = icmp ne i64 %11, 0
  %13 = zext i1 %12 to i32
  call void @llvm.lifetime.end.p0(i64 8, ptr %5) #8
  ret i32 %13
}

; Function Attrs: inlinehint nounwind uwtable
define internal ptr @_Py_TYPE(ptr noundef %0) #2 {
  %2 = alloca ptr, align 8
  store ptr %0, ptr %2, align 8, !tbaa !22
  %3 = load ptr, ptr %2, align 8, !tbaa !22
  %4 = getelementptr inbounds nuw %struct._object, ptr %3, i32 0, i32 1
  %5 = load ptr, ptr %4, align 8, !tbaa !23
  ret ptr %5
}

; Function Attrs: alwaysinline nounwind uwtable
define internal i32 @_Py_IsImmortal(ptr noundef %0) #5 {
  %2 = alloca ptr, align 8
  store ptr %0, ptr %2, align 8, !tbaa !22
  %3 = load ptr, ptr %2, align 8, !tbaa !22
  %4 = getelementptr inbounds nuw %struct._object, ptr %3, i32 0, i32 0
  %5 = getelementptr inbounds nuw %struct.anon, ptr %4, i32 0, i32 0
  %6 = load i32, ptr %5, align 8, !tbaa !65
  %7 = icmp slt i32 %6, 0
  %8 = zext i1 %7 to i32
  ret i32 %8
}

; Function Attrs: nounwind uwtable
define internal i32 @isolation_level_converter(ptr noundef %0, ptr noundef %1) #0 {
  %3 = alloca i32, align 4
  %4 = alloca ptr, align 8
  %5 = alloca ptr, align 8
  %6 = alloca ptr, align 8
  %7 = alloca i32, align 4
  %8 = alloca ptr, align 8
  store ptr %0, ptr %4, align 8, !tbaa !22
  store ptr %1, ptr %5, align 8, !tbaa !115
  %9 = load ptr, ptr %4, align 8, !tbaa !22
  %10 = icmp eq ptr %9, @_Py_NoneStruct
  br i1 %10, label %11, label %13

11:                                               ; preds = %2
  %12 = load ptr, ptr %5, align 8, !tbaa !115
  store ptr null, ptr %12, align 8, !tbaa !42
  br label %40

13:                                               ; preds = %2
  %14 = load ptr, ptr %4, align 8, !tbaa !22
  %15 = call ptr @_Py_TYPE(ptr noundef %14)
  %16 = call i32 @PyType_HasFeature(ptr noundef %15, i64 noundef 268435456)
  %17 = icmp ne i32 %16, 0
  br i1 %17, label %18, label %37

18:                                               ; preds = %13
  call void @llvm.lifetime.start.p0(i64 8, ptr %6) #8
  %19 = load ptr, ptr %4, align 8, !tbaa !22
  %20 = call ptr @_PyUnicode_AsUTF8NoNUL(ptr noundef %19)
  store ptr %20, ptr %6, align 8, !tbaa !42
  %21 = load ptr, ptr %6, align 8, !tbaa !42
  %22 = icmp eq ptr %21, null
  br i1 %22, label %23, label %24

23:                                               ; preds = %18
  store i32 0, ptr %3, align 4
  store i32 1, ptr %7, align 4
  br label %34

24:                                               ; preds = %18
  call void @llvm.lifetime.start.p0(i64 8, ptr %8) #8
  %25 = load ptr, ptr %6, align 8, !tbaa !42
  %26 = call ptr @get_isolation_level(ptr noundef %25)
  store ptr %26, ptr %8, align 8, !tbaa !42
  %27 = load ptr, ptr %8, align 8, !tbaa !42
  %28 = icmp eq ptr %27, null
  br i1 %28, label %29, label %30

29:                                               ; preds = %24
  store i32 0, ptr %3, align 4
  store i32 1, ptr %7, align 4
  br label %33

30:                                               ; preds = %24
  %31 = load ptr, ptr %8, align 8, !tbaa !42
  %32 = load ptr, ptr %5, align 8, !tbaa !115
  store ptr %31, ptr %32, align 8, !tbaa !42
  store i32 0, ptr %7, align 4
  br label %33

33:                                               ; preds = %30, %29
  call void @llvm.lifetime.end.p0(i64 8, ptr %8) #8
  br label %34

34:                                               ; preds = %33, %23
  call void @llvm.lifetime.end.p0(i64 8, ptr %6) #8
  %35 = load i32, ptr %7, align 4
  switch i32 %35, label %43 [
    i32 0, label %36
    i32 1, label %41
  ]

36:                                               ; preds = %34
  br label %39

37:                                               ; preds = %13
  %38 = load ptr, ptr @PyExc_TypeError, align 8, !tbaa !22
  call void @PyErr_SetString(ptr noundef %38, ptr noundef @.str.126)
  store i32 0, ptr %3, align 4
  br label %41

39:                                               ; preds = %36
  br label %40

40:                                               ; preds = %39, %11
  store i32 1, ptr %3, align 4
  br label %41

41:                                               ; preds = %40, %37, %34
  %42 = load i32, ptr %3, align 4
  ret i32 %42

43:                                               ; preds = %34
  unreachable
}

; Function Attrs: alwaysinline nounwind uwtable
define internal void @Py_DECREF(ptr noundef %0) #5 {
  %2 = alloca ptr, align 8
  store ptr %0, ptr %2, align 8, !tbaa !22
  %3 = load ptr, ptr %2, align 8, !tbaa !22
  %4 = call i32 @_Py_IsImmortal(ptr noundef %3)
  %5 = icmp ne i32 %4, 0
  br i1 %5, label %6, label %7

6:                                                ; preds = %1
  br label %16

7:                                                ; preds = %1
  %8 = load ptr, ptr %2, align 8, !tbaa !22
  %9 = getelementptr inbounds nuw %struct._object, ptr %8, i32 0, i32 0
  %10 = getelementptr inbounds nuw %struct.anon, ptr %9, i32 0, i32 0
  %11 = load i32, ptr %10, align 8, !tbaa !65
  %12 = add i32 %11, -1
  store i32 %12, ptr %10, align 8, !tbaa !65
  %13 = icmp eq i32 %12, 0
  br i1 %13, label %14, label %16

14:                                               ; preds = %7
  %15 = load ptr, ptr %2, align 8, !tbaa !22
  call void @_Py_Dealloc(ptr noundef %15)
  br label %16

16:                                               ; preds = %6, %14, %7
  ret void
}

; Function Attrs: nounwind uwtable
define internal i32 @pysqlite_connection_set_isolation_level(ptr noundef %0, ptr noundef %1, ptr noundef %2) #0 {
  %4 = alloca i32, align 4
  %5 = alloca ptr, align 8
  %6 = alloca ptr, align 8
  %7 = alloca ptr, align 8
  %8 = alloca ptr, align 8
  %9 = alloca i32, align 4
  %10 = alloca ptr, align 8
  store ptr %0, ptr %5, align 8, !tbaa !22
  store ptr %1, ptr %6, align 8, !tbaa !22
  store ptr %2, ptr %7, align 8, !tbaa !3
  call void @llvm.lifetime.start.p0(i64 8, ptr %8) #8
  %11 = load ptr, ptr %5, align 8, !tbaa !22
  store ptr %11, ptr %8, align 8, !tbaa !3
  %12 = load ptr, ptr %6, align 8, !tbaa !22
  %13 = icmp eq ptr %12, null
  br i1 %13, label %14, label %16

14:                                               ; preds = %3
  %15 = load ptr, ptr @PyExc_AttributeError, align 8, !tbaa !22
  call void @PyErr_SetString(ptr noundef %15, ptr noundef @.str.125)
  store i32 -1, ptr %4, align 4
  store i32 1, ptr %9, align 4
  br label %38

16:                                               ; preds = %3
  %17 = load ptr, ptr %6, align 8, !tbaa !22
  %18 = icmp eq ptr %17, @_Py_NoneStruct
  br i1 %18, label %19, label %30

19:                                               ; preds = %16
  %20 = load ptr, ptr %8, align 8, !tbaa !3
  %21 = getelementptr inbounds nuw %struct.pysqlite_Connection, ptr %20, i32 0, i32 4
  store ptr null, ptr %21, align 8, !tbaa !114
  call void @llvm.lifetime.start.p0(i64 8, ptr %10) #8
  %22 = load ptr, ptr %8, align 8, !tbaa !3
  %23 = call ptr @pysqlite_connection_commit_impl(ptr noundef %22)
  store ptr %23, ptr %10, align 8, !tbaa !22
  %24 = load ptr, ptr %10, align 8, !tbaa !22
  %25 = icmp eq ptr %24, null
  br i1 %25, label %26, label %27

26:                                               ; preds = %19
  store i32 -1, ptr %4, align 4
  store i32 1, ptr %9, align 4
  br label %29

27:                                               ; preds = %19
  %28 = load ptr, ptr %10, align 8, !tbaa !22
  call void @Py_DECREF(ptr noundef %28)
  store i32 0, ptr %4, align 4
  store i32 1, ptr %9, align 4
  br label %29

29:                                               ; preds = %27, %26
  call void @llvm.lifetime.end.p0(i64 8, ptr %10) #8
  br label %38

30:                                               ; preds = %16
  %31 = load ptr, ptr %6, align 8, !tbaa !22
  %32 = load ptr, ptr %8, align 8, !tbaa !3
  %33 = getelementptr inbounds nuw %struct.pysqlite_Connection, ptr %32, i32 0, i32 4
  %34 = call i32 @isolation_level_converter(ptr noundef %31, ptr noundef %33)
  %35 = icmp ne i32 %34, 0
  br i1 %35, label %37, label %36

36:                                               ; preds = %30
  store i32 -1, ptr %4, align 4
  store i32 1, ptr %9, align 4
  br label %38

37:                                               ; preds = %30
  store i32 0, ptr %4, align 4
  store i32 1, ptr %9, align 4
  br label %38

38:                                               ; preds = %37, %36, %29, %14
  call void @llvm.lifetime.end.p0(i64 8, ptr %8) #8
  %39 = load i32, ptr %4, align 4
  ret i32 %39
}