; Function Attrs: nounwind uwtable
define internal range(i32 -1, 1) i32 @pysqlite_connection_set_isolation_level(ptr noundef captures(none) %0, ptr noundef %1, ptr readnone captures(none) %2) #0 {
  %4 = icmp eq ptr %1, null
  br i1 %4, label %5, label %7

5:                                                ; preds = %3
  %6 = load ptr, ptr @PyExc_AttributeError, align 8, !tbaa !25
  tail call void @PyErr_SetString(ptr noundef %6, ptr noundef nonnull @.str.125) #7
  br label %Py_DECREF.exit

7:                                                ; preds = %3
  %8 = icmp eq ptr %1, @_Py_NoneStruct
  %9 = getelementptr inbounds nuw i8, ptr %0, i64 40
  br i1 %8, label %10, label %19

10:                                               ; preds = %7
  store ptr null, ptr %9, align 8, !tbaa !50
  %11 = tail call fastcc ptr @pysqlite_connection_commit_impl(ptr noundef %0)
  %12 = icmp eq ptr %11, null
  br i1 %12, label %Py_DECREF.exit, label %13

13:                                               ; preds = %10
  %14 = load i32, ptr %11, align 8, !tbaa !34
  %.not.i = icmp sgt i32 %14, -1
  br i1 %.not.i, label %15, label %Py_DECREF.exit

15:                                               ; preds = %13
  %16 = add nsw i32 %14, -1
  store i32 %16, ptr %11, align 8, !tbaa !34
  %17 = icmp eq i32 %16, 0
  br i1 %17, label %18, label %Py_DECREF.exit

18:                                               ; preds = %15
  tail call void @_Py_Dealloc(ptr noundef nonnull %11) #7
  br label %Py_DECREF.exit

19:                                               ; preds = %7
  %20 = getelementptr i8, ptr %1, i64 8
  %.val.i = load ptr, ptr %20, align 8, !tbaa !16
  %21 = getelementptr i8, ptr %.val.i, i64 168
  %.val14.i = load i64, ptr %21, align 8, !tbaa !43
  %22 = and i64 %.val14.i, 268435456
  %.not.i11 = icmp eq i64 %22, 0
  br i1 %.not.i11, label %33, label %23

23:                                               ; preds = %19
  %24 = tail call ptr @_PyUnicode_AsUTF8NoNUL(ptr noundef nonnull %1) #7
  %25 = icmp eq ptr %24, null
  br i1 %25, label %Py_DECREF.exit, label %.preheader.i

26:                                               ; preds = %.preheader.i
  %indvars.iv.next.i.i = add nuw nsw i64 %indvars.iv.i.i, 1
  %27 = getelementptr [5 x ptr], ptr @get_isolation_level.allowed_levels, i64 0, i64 %indvars.iv.next.i.i
  %28 = load ptr, ptr %27, align 8, !tbaa !44
  %.not.i.i = icmp eq i64 %indvars.iv.next.i.i, 4
  br i1 %.not.i.i, label %get_isolation_level.exit.thread.i, label %.preheader.i, !llvm.loop !45

.preheader.i:                                     ; preds = %23, %26
  %indvars.iv.i.i = phi i64 [ %indvars.iv.next.i.i, %26 ], [ 0, %23 ]
  %29 = phi ptr [ %28, %26 ], [ @.str.66, %23 ]
  %30 = tail call i32 @sqlite3_stricmp(ptr noundef nonnull %24, ptr noundef %29) #7
  %.not12.i.i = icmp eq i32 %30, 0
  br i1 %.not12.i.i, label %get_isolation_level.exit.i, label %26

get_isolation_level.exit.thread.i:                ; preds = %26
  %31 = load ptr, ptr @PyExc_ValueError, align 8, !tbaa !25
  tail call void @PyErr_SetString(ptr noundef %31, ptr noundef nonnull @.str.130) #7
  br label %Py_DECREF.exit

get_isolation_level.exit.i:                       ; preds = %.preheader.i
  %32 = icmp eq ptr %29, null
  br i1 %32, label %Py_DECREF.exit, label %isolation_level_converter.exit

33:                                               ; preds = %19
  %34 = load ptr, ptr @PyExc_TypeError, align 8, !tbaa !25
  tail call void @PyErr_SetString(ptr noundef %34, ptr noundef nonnull @.str.126) #7
  br label %Py_DECREF.exit

isolation_level_converter.exit:                   ; preds = %get_isolation_level.exit.i
  store ptr %29, ptr %9, align 8, !tbaa !44
  br label %Py_DECREF.exit

Py_DECREF.exit:                                   ; preds = %isolation_level_converter.exit, %33, %23, %get_isolation_level.exit.i, %get_isolation_level.exit.thread.i, %18, %15, %13, %10, %5
  %.0 = phi i32 [ -1, %5 ], [ -1, %10 ], [ 0, %13 ], [ 0, %15 ], [ 0, %18 ], [ 0, %isolation_level_converter.exit ], [ -1, %33 ], [ -1, %23 ], [ -1, %get_isolation_level.exit.i ], [ -1, %get_isolation_level.exit.thread.i ]
  ret i32 %.0
}